target datalayout = "e-m:e-p270:32:32-p271:32:32-p272:64:64-i64:64-i128:128-f80:128-n8:16:32:64-S128"
target triple = "x86_64-pc-linux-gnu"

%"class.std::__1::__sp_mut" = type { ptr }
%"struct.std::__1::hash" = type { i8 }
%union.anon = type { ptr }

; Function Attrs: mustprogress nounwind uwtable
define linkonce_odr hidden noundef i64 @_ZNKSt3__14hashIPKvEclB8ne210000ES2_(ptr noundef nonnull align 1 dereferenceable(1) %0, ptr noundef %1) #1 comdat align 2 {
  %3 = alloca ptr, align 8
  %4 = alloca ptr, align 8
  %5 = alloca %union.anon, align 8
  store ptr %0, ptr %3, align 8, !tbaa !35
  store ptr %1, ptr %4, align 8, !tbaa !34
  call void @llvm.lifetime.start.p0(i64 8, ptr %5) #8
  %6 = load ptr, ptr %4, align 8, !tbaa !34
  store ptr %6, ptr %5, align 8, !tbaa !37
  %7 = call noundef i64 @_ZNSt3__113__hash_memoryEPKvm(ptr noundef captures(none) %5, i64 noundef 8) #11
  call void @llvm.lifetime.end.p0(i64 8, ptr %5) #8
  ret i64 %7
}

; Function Attrs: mustprogress nounwind uwtable
define dso_local noundef nonnull align 8 dereferenceable(8) ptr @_ZNSt3__112__get_sp_mutEPKv(ptr noundef %0) #1 {
  %2 = alloca ptr, align 8
  %3 = alloca %"struct.std::__1::hash", align 1
  store ptr %0, ptr %2, align 8, !tbaa !34
  call void @llvm.lifetime.start.p0(i64 1, ptr %3) #8
  %4 = load ptr, ptr %2, align 8, !tbaa !34
  %5 = call noundef i64 @_ZNKSt3__14hashIPKvEclB8ne210000ES2_(ptr noundef nonnull align 1 dereferenceable(1) %3, ptr noundef %4) #8
  %6 = and i64 %5, 31
  %7 = getelementptr inbounds nuw [32 x %"class.std::__1::__sp_mut"], ptr @_ZZNSt3__112__get_sp_mutEPKvE4muts, i64 0, i64 %6
  call void @llvm.lifetime.end.p0(i64 1, ptr %3) #8
  ret ptr %7
}