; Function Attrs: mustprogress nofree nounwind willreturn memory(read) uwtable
define dso_local noundef nonnull align 8 dereferenceable(8) ptr @_ZNSt3__112__get_sp_mutEPKv(ptr noundef %0) local_unnamed_addr #9 {
  %2 = alloca %union.anon, align 8
  call void @llvm.lifetime.start.p0(i64 8, ptr nonnull %2) #12
  store ptr %0, ptr %2, align 8, !tbaa !12
  %3 = call noundef i64 @_ZNSt3__113__hash_memoryEPKvm(ptr noundef nonnull captures(none) %2, i64 noundef 8) #15
  call void @llvm.lifetime.end.p0(i64 8, ptr nonnull %2) #12
  %4 = and i64 %3, 31
  %5 = getelementptr inbounds nuw [32 x %"class.std::__1::__sp_mut"], ptr @_ZZNSt3__112__get_sp_mutEPKvE4muts, i64 0, i64 %4
  ret ptr %5
}